target datalayout = "e-m:e-p270:32:32-p271:32:32-p272:64:64-i64:64-i128:128-f80:128-n8:16:32:64-S128"
target triple = "x86_64-pc-linux-gnu"

%"class.cv::Size_" = type { i32, i32 }
%"class.testing::internal::ParamGenerator" = type { %"class.testing::internal::linked_ptr" }
%"class.testing::internal::linked_ptr" = type { ptr, %"class.testing::internal::linked_ptr_internal" }
%"class.testing::internal::linked_ptr_internal" = type { ptr }
%"class.testing::internal::CartesianProductHolder3" = type { %"class.testing::internal::ValueArray2", %"class.testing::internal::ValueArray2.29", %"class.testing::internal::ValueArray2.29" }
%"class.testing::internal::ValueArray2" = type { %"class.cv::Size_", %"class.cv::Size_" }
%"class.testing::internal::ValueArray2.29" = type { i32, i32 }

@_ZN4perfL6szQVGAE = internal global %"class.cv::Size_" zeroinitializer, align 4
@_ZN4perfL5szVGAE = internal global %"class.cv::Size_" zeroinitializer, align 4

; Function Attrs: mustprogress nounwind uwtable
define linkonce_odr hidden void @_ZN7testing8internal11ValueArray2IiiEC2ERKS2_(ptr noundef nonnull align 4 dereferenceable(8) %0, ptr noundef nonnull align 4 dereferenceable(8) %1) unnamed_addr #4 comdat align 2 {
  %3 = alloca ptr, align 8
  %4 = alloca ptr, align 8
  store ptr %0, ptr %3, align 8
  store ptr %1, ptr %4, align 8
  %5 = load ptr, ptr %3, align 8
  %6 = getelementptr inbounds %"class.testing::internal::ValueArray2.29", ptr %5, i32 0, i32 0
  %7 = load ptr, ptr %4, align 8
  %8 = getelementptr inbounds %"class.testing::internal::ValueArray2.29", ptr %7, i32 0, i32 0
  %9 = load i32, ptr %8, align 4
  store i32 %9, ptr %6, align 4
  %10 = getelementptr inbounds %"class.testing::internal::ValueArray2.29", ptr %5, i32 0, i32 1
  %11 = load ptr, ptr %4, align 8
  %12 = getelementptr inbounds %"class.testing::internal::ValueArray2.29", ptr %11, i32 0, i32 1
  %13 = load i32, ptr %12, align 4
  store i32 %13, ptr %10, align 4
  ret void
}

; Function Attrs: mustprogress nounwind uwtable
define linkonce_odr hidden void @_ZN7testing8internal11ValueArray2IN2cv5Size_IiEES4_EC2ERKS5_(ptr noundef nonnull align 4 dereferenceable(16) %0, ptr noundef nonnull align 4 dereferenceable(16) %1) unnamed_addr #4 comdat align 2 {
  %3 = alloca ptr, align 8
  %4 = alloca ptr, align 8
  store ptr %0, ptr %3, align 8
  store ptr %1, ptr %4, align 8
  %5 = load ptr, ptr %3, align 8
  %6 = getelementptr inbounds %"class.testing::internal::ValueArray2", ptr %5, i32 0, i32 0
  %7 = load ptr, ptr %4, align 8
  %8 = getelementptr inbounds %"class.testing::internal::ValueArray2", ptr %7, i32 0, i32 0
  call void @llvm.memcpy.p0.p0.i64(ptr align 4 %6, ptr align 4 %8, i64 8, i1 false)
  %9 = getelementptr inbounds %"class.testing::internal::ValueArray2", ptr %5, i32 0, i32 1
  %10 = load ptr, ptr %4, align 8
  %11 = getelementptr inbounds %"class.testing::internal::ValueArray2", ptr %10, i32 0, i32 1
  call void @llvm.memcpy.p0.p0.i64(ptr align 4 %9, ptr align 4 %11, i64 8, i1 false)
  ret void
}

; Function Attrs: mustprogress uwtable
define linkonce_odr hidden void @_ZN7testing8internal23CartesianProductHolder3INS0_11ValueArray2IN2cv5Size_IiEES5_EENS2_IiiEES7_EC2ERKS6_RKS7_SC_(ptr noundef nonnull align 4 dereferenceable(32) %0, ptr noundef nonnull align 4 dereferenceable(16) %1, ptr noundef nonnull align 4 dereferenceable(8) %2, ptr noundef nonnull align 4 dereferenceable(8) %3) unnamed_addr #5 comdat align 2 {
  %5 = alloca ptr, align 8
  %6 = alloca ptr, align 8
  %7 = alloca ptr, align 8
  %8 = alloca ptr, align 8
  store ptr %0, ptr %5, align 8
  store ptr %1, ptr %6, align 8
  store ptr %2, ptr %7, align 8
  store ptr %3, ptr %8, align 8
  %9 = load ptr, ptr %5, align 8
  %10 = getelementptr inbounds %"class.testing::internal::CartesianProductHolder3", ptr %9, i32 0, i32 0
  %11 = load ptr, ptr %6, align 8
  call void @_ZN7testing8internal11ValueArray2IN2cv5Size_IiEES4_EC2ERKS5_(ptr noundef nonnull align 4 dereferenceable(16) %10, ptr noundef nonnull align 4 dereferenceable(16) %11)
  %12 = getelementptr inbounds %"class.testing::internal::CartesianProductHolder3", ptr %9, i32 0, i32 1
  %13 = load ptr, ptr %7, align 8
  call void @_ZN7testing8internal11ValueArray2IiiEC2ERKS2_(ptr noundef nonnull align 4 dereferenceable(8) %12, ptr noundef nonnull align 4 dereferenceable(8) %13)
  %14 = getelementptr inbounds %"class.testing::internal::CartesianProductHolder3", ptr %9, i32 0, i32 2
  %15 = load ptr, ptr %8, align 8
  call void @_ZN7testing8internal11ValueArray2IiiEC2ERKS2_(ptr noundef nonnull align 4 dereferenceable(8) %14, ptr noundef nonnull align 4 dereferenceable(8) %15)
  ret void
}

; Function Attrs: mustprogress nounwind uwtable
define linkonce_odr hidden void @_ZN7testing8internal11ValueArray2IiiEC2Eii(ptr noundef nonnull align 4 dereferenceable(8) %0, i32 noundef %1, i32 noundef %2) unnamed_addr #4 comdat align 2 {
  %4 = alloca ptr, align 8
  %5 = alloca i32, align 4
  %6 = alloca i32, align 4
  store ptr %0, ptr %4, align 8
  store i32 %1, ptr %5, align 4
  store i32 %2, ptr %6, align 4
  %7 = load ptr, ptr %4, align 8
  %8 = getelementptr inbounds %"class.testing::internal::ValueArray2.29", ptr %7, i32 0, i32 0
  %9 = load i32, ptr %5, align 4
  store i32 %9, ptr %8, align 4
  %10 = getelementptr inbounds %"class.testing::internal::ValueArray2.29", ptr %7, i32 0, i32 1
  %11 = load i32, ptr %6, align 4
  store i32 %11, ptr %10, align 4
  ret void
}

; Function Attrs: mustprogress nounwind uwtable
define linkonce_odr hidden void @_ZN7testing8internal11ValueArray2IN2cv5Size_IiEES4_EC2ES4_S4_(ptr noundef nonnull align 4 dereferenceable(16) %0, i64 %1, i64 %2) unnamed_addr #4 comdat align 2 {
  %4 = alloca %"class.cv::Size_", align 4
  %5 = alloca %"class.cv::Size_", align 4
  %6 = alloca ptr, align 8
  store i64 %1, ptr %4, align 4
  store i64 %2, ptr %5, align 4
  store ptr %0, ptr %6, align 8
  %7 = load ptr, ptr %6, align 8
  %8 = getelementptr inbounds %"class.testing::internal::ValueArray2", ptr %7, i32 0, i32 0
  call void @llvm.memcpy.p0.p0.i64(ptr align 4 %8, ptr align 4 %4, i64 8, i1 false)
  %9 = getelementptr inbounds %"class.testing::internal::ValueArray2", ptr %7, i32 0, i32 1
  call void @llvm.memcpy.p0.p0.i64(ptr align 4 %9, ptr align 4 %5, i64 8, i1 false)
  ret void
}

; Function Attrs: mustprogress uwtable
define linkonce_odr hidden void @_ZN7testing7CombineINS_8internal11ValueArray2IN2cv5Size_IiEES5_EENS2_IiiEES7_EENS1_23CartesianProductHolder3IT_T0_T1_EERKS9_RKSA_RKSB_(ptr dead_on_unwind noalias writable sret(%"class.testing::internal::CartesianProductHolder3") align 4 %0, ptr noundef nonnull align 4 dereferenceable(16) %1, ptr noundef nonnull align 4 dereferenceable(8) %2, ptr noundef nonnull align 4 dereferenceable(8) %3) #5 comdat {
  %5 = alloca ptr, align 8
  %6 = alloca ptr, align 8
  %7 = alloca ptr, align 8
  %8 = alloca ptr, align 8
  store ptr %0, ptr %5, align 8
  store ptr %1, ptr %6, align 8
  store ptr %2, ptr %7, align 8
  store ptr %3, ptr %8, align 8
  %9 = load ptr, ptr %6, align 8
  %10 = load ptr, ptr %7, align 8
  %11 = load ptr, ptr %8, align 8
  call void @_ZN7testing8internal23CartesianProductHolder3INS0_11ValueArray2IN2cv5Size_IiEES5_EENS2_IiiEES7_EC2ERKS6_RKS7_SC_(ptr noundef nonnull align 4 dereferenceable(32) %0, ptr noundef nonnull align 4 dereferenceable(16) %9, ptr noundef nonnull align 4 dereferenceable(8) %10, ptr noundef nonnull align 4 dereferenceable(8) %11)
  ret void
}

; Function Attrs: mustprogress uwtable
define linkonce_odr hidden void @_ZN7testing6ValuesIiiEENS_8internal11ValueArray2IT_T0_EES3_S4_(ptr dead_on_unwind noalias writable sret(%"class.testing::internal::ValueArray2.29") align 4 %0, i32 noundef %1, i32 noundef %2) #5 comdat {
  %4 = alloca ptr, align 8
  %5 = alloca i32, align 4
  %6 = alloca i32, align 4
  store ptr %0, ptr %4, align 8
  store i32 %1, ptr %5, align 4
  store i32 %2, ptr %6, align 4
  %7 = load i32, ptr %5, align 4
  %8 = load i32, ptr %6, align 4
  call void @_ZN7testing8internal11ValueArray2IiiEC2Eii(ptr noundef nonnull align 4 dereferenceable(8) %0, i32 noundef %7, i32 noundef %8)
  ret void
}

; Function Attrs: mustprogress uwtable
define linkonce_odr hidden void @_ZN7testing6ValuesIN2cv5Size_IiEES3_EENS_8internal11ValueArray2IT_T0_EES6_S7_(ptr dead_on_unwind noalias writable sret(%"class.testing::internal::ValueArray2") align 4 %0, i64 %1, i64 %2) #5 comdat {
  %4 = alloca ptr, align 8
  %5 = alloca %"class.cv::Size_", align 4
  %6 = alloca %"class.cv::Size_", align 4
  %7 = alloca %"class.cv::Size_", align 4
  %8 = alloca %"class.cv::Size_", align 4
  store ptr %0, ptr %4, align 8
  store i64 %1, ptr %5, align 4
  store i64 %2, ptr %6, align 4
  call void @llvm.memcpy.p0.p0.i64(ptr align 4 %7, ptr align 4 %5, i64 8, i1 false)
  call void @llvm.memcpy.p0.p0.i64(ptr align 4 %8, ptr align 4 %6, i64 8, i1 false)
  %9 = load i64, ptr %7, align 4
  %10 = load i64, ptr %8, align 4
  call void @_ZN7testing8internal11ValueArray2IN2cv5Size_IiEES4_EC2ES4_S4_(ptr noundef nonnull align 4 dereferenceable(16) %0, i64 %9, i64 %10)
  ret void
}

; Function Attrs: mustprogress uwtable
define internal void @_ZN11opencv_test12_GLOBAL__N_164gtest_DenseOpticalFlow_VariationalRefinement_perf_EvalGenerator_Ev(ptr dead_on_unwind noalias writable sret(%"class.testing::internal::ParamGenerator") align 8 %0) #5 {
  %2 = alloca ptr, align 8
  %3 = alloca %"class.testing::internal::CartesianProductHolder3", align 4
  %4 = alloca %"class.testing::internal::ValueArray2", align 4
  %5 = alloca %"class.cv::Size_", align 4
  %6 = alloca %"class.cv::Size_", align 4
  %7 = alloca %"class.testing::internal::ValueArray2.29", align 4
  %8 = alloca %"class.testing::internal::ValueArray2.29", align 4
  store ptr %0, ptr %2, align 8
  call void @llvm.memcpy.p0.p0.i64(ptr align 4 %5, ptr align 4 @_ZN4perfL6szQVGAE, i64 8, i1 false)
  call void @llvm.memcpy.p0.p0.i64(ptr align 4 %6, ptr align 4 @_ZN4perfL5szVGAE, i64 8, i1 false)
  %9 = load i64, ptr %5, align 4
  %10 = load i64, ptr %6, align 4
  call void @_ZN7testing6ValuesIN2cv5Size_IiEES3_EENS_8internal11ValueArray2IT_T0_EES6_S7_(ptr dead_on_unwind writable sret(%"class.testing::internal::ValueArray2") align 4 %4, i64 %9, i64 %10)
  call void @_ZN7testing6ValuesIiiEENS_8internal11ValueArray2IT_T0_EES3_S4_(ptr dead_on_unwind writable sret(%"class.testing::internal::ValueArray2.29") align 4 %7, i32 noundef 5, i32 noundef 10)
  call void @_ZN7testing6ValuesIiiEENS_8internal11ValueArray2IT_T0_EES3_S4_(ptr dead_on_unwind writable sret(%"class.testing::internal::ValueArray2.29") align 4 %8, i32 noundef 5, i32 noundef 10)
  call void @_ZN7testing7CombineINS_8internal11ValueArray2IN2cv5Size_IiEES5_EENS2_IiiEES7_EENS1_23CartesianProductHolder3IT_T0_T1_EERKS9_RKSA_RKSB_(ptr dead_on_unwind writable sret(%"class.testing::internal::CartesianProductHolder3") align 4 %3, ptr noundef nonnull align 4 dereferenceable(16) %4, ptr noundef nonnull align 4 dereferenceable(8) %7, ptr noundef nonnull align 4 dereferenceable(8) %8)
  call void @_ZNK7testing8internal23CartesianProductHolder3INS0_11ValueArray2IN2cv5Size_IiEES5_EENS2_IiiEES7_EcvNS0_14ParamGeneratorISt5tupleIJT_T0_T1_EEEEIS5_iiEEv(ptr dead_on_unwind writable sret(%"class.testing::internal::ParamGenerator") align 8 %0, ptr noundef nonnull align 4 dereferenceable(32) %3)
  ret void
}