; Function Attrs: mustprogress uwtable
define internal void @_ZN11opencv_test12_GLOBAL__N_164gtest_DenseOpticalFlow_VariationalRefinement_perf_EvalGenerator_Ev(ptr dead_on_unwind noalias writable sret(%"class.testing::internal::ParamGenerator") align 8 %0) #3 {
  %2 = alloca %"class.testing::internal::CartesianProductHolder3", align 8
  %.sroa.01.0.copyload = load i64, ptr @_ZN4perfL6szQVGAE, align 8
  %.sroa.0.0.copyload = load i64, ptr @_ZN4perfL5szVGAE, align 8
  store i64 %.sroa.01.0.copyload, ptr %2, align 8, !alias.scope !7
  %3 = getelementptr inbounds i8, ptr %2, i64 8
  store i64 %.sroa.0.0.copyload, ptr %3, align 8, !alias.scope !7
  %4 = getelementptr inbounds i8, ptr %2, i64 16
  store <4 x i32> <i32 5, i32 10, i32 5, i32 10>, ptr %4, align 8, !alias.scope !7
  call void @_ZNK7testing8internal23CartesianProductHolder3INS0_11ValueArray2IN2cv5Size_IiEES5_EENS2_IiiEES7_EcvNS0_14ParamGeneratorISt5tupleIJT_T0_T1_EEEEIS5_iiEEv(ptr dead_on_unwind writable sret(%"class.testing::internal::ParamGenerator") align 8 %0, ptr noundef nonnull align 4 dereferenceable(32) %2)
  ret void
}